; ModuleID = '28/1631.c'
source_filename = "28/1631.c"
target datalayout = "e-m:e-p270:32:32-p271:32:32-p272:64:64-i64:64-f80:128-n8:16:32:64-S128"
target triple = "x86_64-pc-linux-gnu"

@.str = private unnamed_addr constant [3 x i8] c"%d\00", align 1
@.str.1 = private unnamed_addr constant [4 x i8] c",%d\00", align 1

; Function Attrs: noinline nounwind uwtable
define dso_local i32 @main() #0 {
  %1 = alloca i32, align 4
  %2 = alloca [1000 x i8], align 16
  %3 = alloca [300 x [50 x i8]], align 16
  %4 = alloca i32, align 4
  %5 = alloca i32, align 4
  %6 = alloca i32, align 4
  store i32 0, i32* %1, align 4
  %7 = bitcast [1000 x i8]* %2 to i8*
  call void @llvm.memset.p0i8.i64(i8* align 16 %7, i8 0, i64 1000, i1 false)
  %8 = bitcast i8* %7 to <{ i8, [999 x i8] }>*
  %9 = getelementptr inbounds <{ i8, [999 x i8] }>, <{ i8, [999 x i8] }>* %8, i32 0, i32 0
  store i8 32, i8* %9, align 16
  %10 = bitcast [300 x [50 x i8]]* %3 to i8*
  call void @llvm.memset.p0i8.i64(i8* align 16 %10, i8 0, i64 15000, i1 false)
  %11 = bitcast i8* %10 to <{ <{ i8, [49 x i8] }>, [299 x <{ i8, [49 x i8] }>] }>*
  %12 = getelementptr inbounds <{ <{ i8, [49 x i8] }>, [299 x <{ i8, [49 x i8] }>] }>, <{ <{ i8, [49 x i8] }>, [299 x <{ i8, [49 x i8] }>] }>* %11, i32 0, i32 0
  %13 = getelementptr inbounds <{ i8, [49 x i8] }>, <{ i8, [49 x i8] }>* %12, i32 0, i32 0
  store i8 48, i8* %13, align 16
  store i32 0, i32* %4, align 4
  store i32 0, i32* %5, align 4
  %14 = getelementptr inbounds [1000 x i8], [1000 x i8]* %2, i64 0, i64 0
  %15 = call i32 (i8*, ...) bitcast (i32 (...)* @gets to i32 (i8*, ...)*)(i8* %14)
  br label %16

16:                                               ; preds = %74, %0
  %17 = load i32, i32* %4, align 4
  %18 = sext i32 %17 to i64
  %19 = getelementptr inbounds [1000 x i8], [1000 x i8]* %2, i64 0, i64 %18
  %20 = load i8, i8* %19, align 1
  %21 = sext i8 %20 to i32
  %22 = icmp ne i32 %21, 0
  br i1 %22, label %23, label %75

23:                                               ; preds = %16
  store i32 0, i32* %6, align 4
  br label %24

24:                                               ; preds = %40, %23
  %25 = load i32, i32* %4, align 4
  %26 = sext i32 %25 to i64
  %27 = getelementptr inbounds [1000 x i8], [1000 x i8]* %2, i64 0, i64 %26
  %28 = load i8, i8* %27, align 1
  %29 = sext i8 %28 to i32
  %30 = icmp ne i32 %29, 32
  br i1 %30, label %31, label %38

31:                                               ; preds = %24
  %32 = load i32, i32* %4, align 4
  %33 = sext i32 %32 to i64
  %34 = getelementptr inbounds [1000 x i8], [1000 x i8]* %2, i64 0, i64 %33
  %35 = load i8, i8* %34, align 1
  %36 = sext i8 %35 to i32
  %37 = icmp ne i32 %36, 0
  br label %38

38:                                               ; preds = %31, %24
  %39 = phi i1 [ false, %24 ], [ %37, %31 ]
  br i1 %39, label %40, label %55

40:                                               ; preds = %38
  %41 = load i32, i32* %4, align 4
  %42 = sext i32 %41 to i64
  %43 = getelementptr inbounds [1000 x i8], [1000 x i8]* %2, i64 0, i64 %42
  %44 = load i8, i8* %43, align 1
  %45 = load i32, i32* %5, align 4
  %46 = sext i32 %45 to i64
  %47 = getelementptr inbounds [300 x [50 x i8]], [300 x [50 x i8]]* %3, i64 0, i64 %46
  %48 = load i32, i32* %6, align 4
  %49 = sext i32 %48 to i64
  %50 = getelementptr inbounds [50 x i8], [50 x i8]* %47, i64 0, i64 %49
  store i8 %44, i8* %50, align 1
  %51 = load i32, i32* %4, align 4
  %52 = add nsw i32 %51, 1
  store i32 %52, i32* %4, align 4
  %53 = load i32, i32* %6, align 4
  %54 = add nsw i32 %53, 1
  store i32 %54, i32* %6, align 4
  br label %24

55:                                               ; preds = %38
  %56 = load i32, i32* %5, align 4
  %57 = sext i32 %56 to i64
  %58 = getelementptr inbounds [300 x [50 x i8]], [300 x [50 x i8]]* %3, i64 0, i64 %57
  %59 = load i32, i32* %6, align 4
  %60 = sext i32 %59 to i64
  %61 = getelementptr inbounds [50 x i8], [50 x i8]* %58, i64 0, i64 %60
  store i8 0, i8* %61, align 1
  %62 = load i32, i32* %5, align 4
  %63 = add nsw i32 %62, 1
  store i32 %63, i32* %5, align 4
  br label %64

64:                                               ; preds = %71, %55
  %65 = load i32, i32* %4, align 4
  %66 = sext i32 %65 to i64
  %67 = getelementptr inbounds [1000 x i8], [1000 x i8]* %2, i64 0, i64 %66
  %68 = load i8, i8* %67, align 1
  %69 = sext i8 %68 to i32
  %70 = icmp eq i32 %69, 32
  br i1 %70, label %71, label %74

71:                                               ; preds = %64
  %72 = load i32, i32* %4, align 4
  %73 = add nsw i32 %72, 1
  store i32 %73, i32* %4, align 4
  br label %64

74:                                               ; preds = %64
  br label %16

75:                                               ; preds = %16
  store i32 0, i32* %4, align 4
  br label %76

76:                                               ; preds = %100, %75
  %77 = load i32, i32* %4, align 4
  %78 = load i32, i32* %5, align 4
  %79 = icmp slt i32 %77, %78
  br i1 %79, label %80, label %103

80:                                               ; preds = %76
  %81 = load i32, i32* %4, align 4
  %82 = icmp eq i32 %81, 0
  br i1 %82, label %83, label %91

83:                                               ; preds = %80
  %84 = load i32, i32* %4, align 4
  %85 = sext i32 %84 to i64
  %86 = getelementptr inbounds [300 x [50 x i8]], [300 x [50 x i8]]* %3, i64 0, i64 %85
  %87 = getelementptr inbounds [50 x i8], [50 x i8]* %86, i64 0, i64 0
  %88 = call i64 @strlen(i8* %87) #4
  %89 = trunc i64 %88 to i32
  %90 = call i32 (i8*, ...) @printf(i8* getelementptr inbounds ([3 x i8], [3 x i8]* @.str, i64 0, i64 0), i32 %89)
  br label %99

91:                                               ; preds = %80
  %92 = load i32, i32* %4, align 4
  %93 = sext i32 %92 to i64
  %94 = getelementptr inbounds [300 x [50 x i8]], [300 x [50 x i8]]* %3, i64 0, i64 %93
  %95 = getelementptr inbounds [50 x i8], [50 x i8]* %94, i64 0, i64 0
  %96 = call i64 @strlen(i8* %95) #4
  %97 = trunc i64 %96 to i32
  %98 = call i32 (i8*, ...) @printf(i8* getelementptr inbounds ([4 x i8], [4 x i8]* @.str.1, i64 0, i64 0), i32 %97)
  br label %99

99:                                               ; preds = %91, %83
  br label %100

100:                                              ; preds = %99
  %101 = load i32, i32* %4, align 4
  %102 = add nsw i32 %101, 1
  store i32 %102, i32* %4, align 4
  br label %76

103:                                              ; preds = %76
  ret i32 0
}

; Function Attrs: argmemonly nounwind willreturn
declare void @llvm.memset.p0i8.i64(i8* nocapture writeonly, i8, i64, i1 immarg) #1

declare dso_local i32 @gets(...) #2

declare dso_local i32 @printf(i8*, ...) #2

; Function Attrs: nounwind readonly
declare dso_local i64 @strlen(i8*) #3


!llvm.module.flags = !{!0}
!llvm.ident = !{!1}

!0 = !{i32 1, !"wchar_size", i32 4}
!1 = !{!"clang version 10.0.0-4ubuntu1 "}
